; ModuleID = 'bench/git/original/fuzz-url-decode-mem.ll'
source_filename = "bench/git/original/fuzz-url-decode-mem.ll"
target datalayout = "e-m:e-p270:32:32-p271:32:32-p272:64:64-i64:64-i128:128-f80:128-n8:16:32:64-S128"
target triple = "x86_64-pc-linux-gnu"

; Function Attrs: nounwind uwtable
define dso_local noundef i32 @LLVMFuzzerTestOneInput(ptr noundef readonly captures(none) %0, i64 noundef %1) local_unnamed_addr #0 {
  %3 = alloca ptr, align 8
  call void @llvm.lifetime.start.p0(i64 8, ptr nonnull %3) #6
  %4 = add i64 %1, 1
  %5 = tail call noalias ptr @malloc(i64 noundef %4) #7
  %.not = icmp eq ptr %5, null
  br i1 %.not, label %12, label %6

6:                                                ; preds = %2
  tail call void @llvm.memcpy.p0.p0.i64(ptr nonnull align 1 %5, ptr align 1 %0, i64 %1, i1 false)
  %7 = getelementptr inbounds nuw i8, ptr %5, i64 %1
  store i8 0, ptr %7, align 1, !tbaa !4
  %8 = tail call ptr @url_decode(ptr noundef nonnull %5) #6
  tail call void @free(ptr noundef %8) #6
  %9 = tail call ptr @url_percent_decode(ptr noundef nonnull %5) #6
  tail call void @free(ptr noundef %9) #6
  store ptr %5, ptr %3, align 8, !tbaa !7
  %10 = call ptr @url_decode_parameter_name(ptr noundef nonnull %3) #6
  call void @free(ptr noundef %10) #6
  store ptr %5, ptr %3, align 8, !tbaa !7
  %11 = call ptr @url_decode_parameter_value(ptr noundef nonnull %3) #6
  call void @free(ptr noundef %11) #6
  call void @free(ptr noundef nonnull %5) #6
  br label %12

12:                                               ; preds = %2, %6
  call void @llvm.lifetime.end.p0(i64 8, ptr nonnull %3) #6
  ret i32 0
}

; Function Attrs: mustprogress nocallback nofree nosync nounwind willreturn memory(argmem: readwrite)
declare void @llvm.lifetime.start.p0(i64 immarg, ptr captures(none)) #1

; Function Attrs: mustprogress nofree nounwind willreturn allockind("alloc,uninitialized") allocsize(0) memory(inaccessiblemem: readwrite)
declare noalias noundef ptr @malloc(i64 noundef) local_unnamed_addr #2

; Function Attrs: mustprogress nocallback nofree nounwind willreturn memory(argmem: readwrite)
declare void @llvm.memcpy.p0.p0.i64(ptr noalias writeonly captures(none), ptr noalias readonly captures(none), i64, i1 immarg) #3

declare ptr @url_decode(ptr noundef) local_unnamed_addr #4

; Function Attrs: mustprogress nounwind willreturn allockind("free") memory(argmem: readwrite, inaccessiblemem: readwrite)
declare void @free(ptr allocptr noundef captures(none)) local_unnamed_addr #5

declare ptr @url_percent_decode(ptr noundef) local_unnamed_addr #4

declare ptr @url_decode_parameter_name(ptr noundef) local_unnamed_addr #4

declare ptr @url_decode_parameter_value(ptr noundef) local_unnamed_addr #4

; Function Attrs: mustprogress nocallback nofree nosync nounwind willreturn memory(argmem: readwrite)
declare void @llvm.lifetime.end.p0(i64 immarg, ptr captures(none)) #1


!llvm.module.flags = !{!0, !1, !2, !3}

!0 = !{i32 1, !"wchar_size", i32 4}
!1 = !{i32 8, !"PIC Level", i32 2}
!2 = !{i32 7, !"PIE Level", i32 2}
!3 = !{i32 7, !"uwtable", i32 2}
!4 = !{!5, !5, i64 0}
!5 = !{!"omnipotent char", !6, i64 0}
!6 = !{!"Simple C/C++ TBAA"}
!7 = !{!8, !8, i64 0}
!8 = !{!"p1 omnipotent char", !9, i64 0}
!9 = !{!"any pointer", !5, i64 0}
